(lp0
(lp1
I0
aI0
aF0.5294
aa(lp2
I0
aI0
aF0.5882
aa(lp3
I0
aI0
aF0.6471
aa(lp4
I0
aI0
aF0.7059
aa(lp5
I0
aI0
aF0.7647
aa(lp6
I0
aI0
aF0.8235
aa(lp7
I0
aI0
aF0.8824
aa(lp8
I0
aI0
aF0.9412
aa(lp9
I0
aI0
aF1.0
aa(lp10
I0
aF0.0588
aF1.0
aa(lp11
I0
aF0.1176
aF1.0
aa(lp12
I0
aF0.1765
aF1.0
aa(lp13
I0
aF0.2353
aF1.0
aa(lp14
I0
aF0.2941
aF1.0
aa(lp15
I0
aF0.3529
aF1.0
aa(lp16
I0
aF0.4118
aF1.0
aa(lp17
I0
aF0.4706
aF1.0
aa(lp18
I0
aF0.5294
aF1.0
aa(lp19
I0
aF0.5882
aF1.0
aa(lp20
I0
aF0.6471
aF1.0
aa(lp21
I0
aF0.7059
aF1.0
aa(lp22
I0
aF0.7647
aF1.0
aa(lp23
I0
aF0.8235
aF1.0
aa(lp24
I0
aF0.8824
aF1.0
aa(lp25
I0
aF0.9412
aF1.0
aa(lp26
I0
aF1.0
aF1.0
aa(lp27
F0.0588
aF1.0
aF0.9412
aa(lp28
F0.1176
aF1.0
aF0.8824
aa(lp29
F0.1765
aF1.0
aF0.8235
aa(lp30
F0.2353
aF1.0
aF0.7647
aa(lp31
F0.2941
aF1.0
aF0.7059
aa(lp32
F0.3529
aF1.0
aF0.6471
aa(lp33
F0.4118
aF1.0
aF0.5882
aa(lp34
F0.4706
aF1.0
aF0.5294
aa(lp35
F0.5294
aF1.0
aF0.4706
aa(lp36
F0.5882
aF1.0
aF0.4118
aa(lp37
F0.6471
aF1.0
aF0.3529
aa(lp38
F0.7059
aF1.0
aF0.2941
aa(lp39
F0.7647
aF1.0
aF0.2353
aa(lp40
F0.8235
aF1.0
aF0.1765
aa(lp41
F0.8824
aF1.0
aF0.1176
aa(lp42
F0.9412
aF1.0
aF0.0588
aa(lp43
F1.0
aF1.0
aI0
aa(lp44
F1.0
aF0.9412
aI0
aa(lp45
F1.0
aF0.8824
aI0
aa(lp46
F1.0
aF0.8235
aI0
aa(lp47
F1.0
aF0.7647
aI0
aa(lp48
F1.0
aF0.7059
aI0
aa(lp49
F1.0
aF0.6471
aI0
aa(lp50
F1.0
aF0.5882
aI0
aa(lp51
F1.0
aF0.5294
aI0
aa(lp52
F1.0
aF0.4706
aI0
aa(lp53
F1.0
aF0.4118
aI0
aa(lp54
F1.0
aF0.3529
aI0
aa(lp55
F1.0
aF0.2941
aI0
aa(lp56
F1.0
aF0.2353
aI0
aa(lp57
F1.0
aF0.1765
aI0
aa(lp58
F1.0
aF0.1176
aI0
aa(lp59
F1.0
aF0.0588
aI0
aa(lp60
F1.0
aI0
aI0
aa(lp61
F0.9412
aI0
aI0
aa(lp62
F0.8824
aI0
aI0
aa(lp63
F0.8235
aI0
aI0
aa(lp64
F0.7647
aI0
aI0
aa(lp65
F0.7059
aI0
aI0
aa(lp66
F0.6471
aI0
aI0
aa.